target datalayout = "e-m:e-p270:32:32-p271:32:32-p272:64:64-i64:64-i128:128-f80:128-n8:16:32:64-S128"
target triple = "x86_64-pc-linux-gnu"

%struct.new_wrap_arg_t = type { i32, ptr, i64 }

; Function Attrs: nounwind sspstrong uwtable
define internal i64 @gzfile_wrap(i32 noundef %0, ptr noundef %1, i64 noundef %2, i32 noundef %3) #0 {
  %5 = alloca i64, align 8
  %6 = alloca i32, align 4
  %7 = alloca ptr, align 8
  %8 = alloca i64, align 8
  %9 = alloca i32, align 4
  %10 = alloca i64, align 8
  %11 = alloca i32, align 4
  %12 = alloca %struct.new_wrap_arg_t, align 8
  %13 = alloca i32, align 4
  store i32 %0, ptr %6, align 4, !tbaa !10
  store ptr %1, ptr %7, align 8, !tbaa !12
  store i64 %2, ptr %8, align 8, !tbaa !6
  store i32 %3, ptr %9, align 4, !tbaa !10
  call void @llvm.lifetime.start.p0(i64 8, ptr %10) #23
  %14 = load i32, ptr %9, align 4, !tbaa !10
  %15 = icmp ne i32 %14, 0
  br i1 %15, label %16, label %34

16:                                               ; preds = %4
  call void @llvm.lifetime.start.p0(i64 4, ptr %11) #23
  store i32 0, ptr %11, align 4, !tbaa !10
  call void @llvm.lifetime.start.p0(i64 24, ptr %12) #23
  %17 = load i32, ptr %6, align 4, !tbaa !10
  %18 = getelementptr inbounds nuw %struct.new_wrap_arg_t, ptr %12, i32 0, i32 0
  store i32 %17, ptr %18, align 8, !tbaa !126
  %19 = load ptr, ptr %7, align 8, !tbaa !12
  %20 = getelementptr inbounds nuw %struct.new_wrap_arg_t, ptr %12, i32 0, i32 1
  store ptr %19, ptr %20, align 8, !tbaa !128
  %21 = load i64, ptr %8, align 8, !tbaa !6
  %22 = getelementptr inbounds nuw %struct.new_wrap_arg_t, ptr %12, i32 0, i32 2
  store i64 %21, ptr %22, align 8, !tbaa !129
  %23 = ptrtoint ptr %12 to i64
  %24 = call i64 @rb_protect(ptr noundef @new_wrap, i64 noundef %23, ptr noundef %11)
  store i64 %24, ptr %10, align 8, !tbaa !6
  %25 = load i32, ptr %11, align 4, !tbaa !10
  %26 = icmp ne i32 %25, 0
  br i1 %26, label %27, label %33

27:                                               ; preds = %16
  %28 = load ptr, ptr %7, align 8, !tbaa !12
  %29 = getelementptr inbounds i64, ptr %28, i64 0
  %30 = load i64, ptr %29, align 8, !tbaa !6
  %31 = call i64 @rb_io_close(i64 noundef %30)
  %32 = load i32, ptr %11, align 4, !tbaa !10
  call void @rb_jump_tag(i32 noundef %32) #26
  unreachable

33:                                               ; preds = %16
  call void @llvm.lifetime.end.p0(i64 24, ptr %12) #23
  call void @llvm.lifetime.end.p0(i64 4, ptr %11) #23
  br label %44

34:                                               ; preds = %4
  %35 = load i32, ptr %6, align 4, !tbaa !10
  %36 = load ptr, ptr %7, align 8, !tbaa !12
  %37 = load i64, ptr %8, align 8, !tbaa !6
  %38 = call i32 @rb_keyword_given_p()
  %39 = icmp ne i32 %38, 0
  %40 = xor i1 %39, true
  %41 = xor i1 %40, true
  %42 = zext i1 %41 to i32
  %43 = call i64 @rb_class_new_instance_kw(i32 noundef %35, ptr noundef %36, i64 noundef %37, i32 noundef %42)
  store i64 %43, ptr %10, align 8, !tbaa !6
  br label %44

44:                                               ; preds = %34, %33
  %45 = call i32 @rb_block_given_p()
  %46 = icmp ne i32 %45, 0
  br i1 %46, label %47, label %51

47:                                               ; preds = %44
  %48 = load i64, ptr %10, align 8, !tbaa !6
  %49 = load i64, ptr %10, align 8, !tbaa !6
  %50 = call i64 @rb_ensure(ptr noundef @rb_yield, i64 noundef %48, ptr noundef @gzfile_ensure_close, i64 noundef %49)
  store i64 %50, ptr %5, align 8
  store i32 1, ptr %13, align 4
  br label %53

51:                                               ; preds = %44
  %52 = load i64, ptr %10, align 8, !tbaa !6
  store i64 %52, ptr %5, align 8
  store i32 1, ptr %13, align 4
  br label %53

53:                                               ; preds = %51, %47
  call void @llvm.lifetime.end.p0(i64 8, ptr %10) #23
  %54 = load i64, ptr %5, align 8
  ret i64 %54
}

; Function Attrs: nounwind sspstrong uwtable
define internal i64 @rb_gzfile_s_wrap(i32 noundef %0, ptr noundef %1, i64 noundef %2) #0 {
  %4 = alloca i32, align 4
  %5 = alloca ptr, align 8
  %6 = alloca i64, align 8
  store i32 %0, ptr %4, align 4, !tbaa !10
  store ptr %1, ptr %5, align 8, !tbaa !12
  store i64 %2, ptr %6, align 8, !tbaa !6
  %7 = load i32, ptr %4, align 4, !tbaa !10
  %8 = load ptr, ptr %5, align 8, !tbaa !12
  %9 = load i64, ptr %6, align 8, !tbaa !6
  %10 = call i64 @gzfile_wrap(i32 noundef %7, ptr noundef %8, i64 noundef %9, i32 noundef 0)
  ret i64 %10
}