; Function Attrs: nounwind sspstrong uwtable
define internal i64 @rb_gzfile_s_wrap(i32 noundef %0, ptr noundef %1, i64 noundef %2) #0 {
  %4 = tail call i32 @rb_keyword_given_p() #18
  %5 = icmp ne i32 %4, 0
  %6 = zext i1 %5 to i32
  %7 = tail call i64 @rb_class_new_instance_kw(i32 noundef %0, ptr noundef %1, i64 noundef %2, i32 noundef %6) #18
  %8 = tail call i32 @rb_block_given_p() #18
  %.not13.i = icmp eq i32 %8, 0
  br i1 %.not13.i, label %gzfile_wrap.exit, label %9

9:                                                ; preds = %3
  %10 = tail call i64 @rb_ensure(ptr noundef nonnull @rb_yield, i64 noundef %7, ptr noundef nonnull @gzfile_ensure_close, i64 noundef %7) #18
  br label %gzfile_wrap.exit

gzfile_wrap.exit:                                 ; preds = %3, %9
  %.011.i = phi i64 [ %10, %9 ], [ %7, %3 ]
  ret i64 %.011.i
}